Certificate:
    Data:
        Version: 3 (0x2)
        Serial Number:
            bb:cc:18:5f:2a:6b:38:d1:14:93:e8:c7:bd:7f:29:c2
        Signature Algorithm: sha256WithRSAEncryption
        Issuer: CN=Test Root CA
        Validity
            Not Before: Oct 26 00:47:47 2022 GMT
            Not After : Oct 23 00:47:47 2032 GMT
        Subject: CN=Test Root CA
        Subject Public Key Info:
            Public Key Algorithm: rsaEncryption
                RSA Public-Key: (2048 bit)
                Modulus:
                    00:f9:d9:fd:17:a3:65:f4:34:2e:14:cb:cc:ea:47:
                    1a:2f:96:fb:00:37:8a:72:ea:99:8b:d3:f4:5a:4c:
                    37:47:12:f9:df:c2:10:d8:a8:05:7c:6a:6f:78:c6:
                    29:88:39:f1:b8:2a:e6:eb:69:57:ac:c7:a5:63:65:
                    0e:ad:02:45:de:a2:94:1c:e8:33:41:20:9d:99:2a:
                    6f:5a:3c:82:46:f8:71:d5:6a:de:f4:86:a1:0e:0d:
                    54:c3:7d:20:30:a6:92:9d:9e:4d:90:cf:78:0b:b4:
                    e7:a2:aa:9e:bb:58:9d:48:59:e1:d2:4e:a7:24:04:
                    49:b0:e0:aa:1f:27:d2:62:03:ae:b6:8f:49:a4:84:
                    3e:f5:cb:dc:45:63:ab:bf:19:26:81:6e:ee:6d:13:
                    10:01:20:10:f4:7b:96:80:51:16:b6:e0:c0:db:06:
                    19:e1:2b:c6:b7:c2:e9:86:89:a6:da:7e:16:8b:a2:
                    21:e8:88:fe:59:c3:76:4e:27:a7:49:03:1b:21:b3:
                    6a:fe:0f:8c:8b:ef:9a:96:7b:b5:20:d8:e7:6a:7d:
                    36:b4:8f:84:79:5e:b6:e1:47:34:fb:89:a2:75:72:
                    2e:f3:c3:49:c0:37:4f:16:20:37:dd:f2:f1:62:1c:
                    a4:aa:da:38:96:f2:0c:b3:44:df:1e:c5:e1:f4:63:
                    e1:7f
                Exponent: 65537 (0x10001)
        X509v3 extensions:
            X509v3 Basic Constraints: critical
                CA:TRUE
            X509v3 Key Usage: critical
                Certificate Sign, CRL Sign
            X509v3 Subject Key Identifier: 
                83:36:E5:F7:B2:3D:53:58:EC:99:AC:AE:4D:43:8A:3B:81:D4:EF:AF
    Signature Algorithm: sha256WithRSAEncryption
         dd:2c:ca:17:0c:88:f9:d9:ef:61:bf:16:da:d8:5a:66:74:be:
         4d:1f:ef:11:7b:17:a4:9e:09:76:db:88:b0:94:85:f6:5d:96:
         ee:64:88:05:65:08:39:52:9c:75:08:ca:fe:d8:88:12:91:f5:
         44:1b:24:40:90:ee:bf:4c:e8:d1:70:79:ce:ae:4b:26:91:10:
         00:8e:02:6c:18:5b:72:cc:5a:47:49:8d:b5:74:77:08:f1:85:
         56:17:63:d5:51:e9:e0:b9:63:52:19:b5:a4:a5:9a:ee:e0:4e:
         69:75:0f:ff:6f:ad:96:78:da:a6:88:fe:33:4f:9c:ae:10:74:
         0e:e1:94:37:02:f6:73:5b:69:8a:bd:cc:3e:01:ac:af:7b:a0:
         4c:45:28:33:2f:7c:61:01:d2:50:c7:1a:ea:2e:3b:1f:5e:97:
         76:79:fd:d5:62:47:a7:4b:08:7d:d9:bd:33:1c:4f:55:a9:64:
         7e:16:66:26:34:50:b2:ea:92:b7:f4:27:a9:c5:28:2d:b7:de:
         57:1f:26:9e:1b:de:60:75:bc:ae:df:28:91:14:f9:66:70:f6:
         ee:07:15:fc:be:a5:3c:64:e2:55:94:fb:85:06:1c:61:6b:4a:
         c0:49:33:e5:88:c4:53:15:47:1b:d2:7b:d5:47:1f:86:26:5c:
         e9:75:a6:58
-----BEGIN CERTIFICATE-----
MIIC+zCCAeOgAwIBAgIRALvMGF8qazjRFJPox71/KcIwDQYJKoZIhvcNAQELBQAw
FzEVMBMGA1UEAwwMVGVzdCBSb290IENBMB4XDTIyMTAyNjAwNDc0N1oXDTMyMTAy
MzAwNDc0N1owFzEVMBMGA1UEAwwMVGVzdCBSb290IENBMIIBIjANBgkqhkiG9w0B
AQEFAAOCAQ8AMIIBCgKCAQEA+dn9F6Nl9DQuFMvM6kcaL5b7ADeKcuqZi9P0Wkw3
RxL538IQ2KgFfGpveMYpiDnxuCrm62lXrMelY2UOrQJF3qKUHOgzQSCdmSpvWjyC
Rvhx1Wre9IahDg1Uw30gMKaSnZ5NkM94C7Tnoqqeu1idSFnh0k6nJARJsOCqHyfS
YgOuto9JpIQ+9cvcRWOrvxkmgW7ubRMQASAQ9HuWgFEWtuDA2wYZ4SvGt8Lphomm
2n4Wi6Ih6Ij+WcN2TienSQMbIbNq/g+Mi++alnu1INjnan02tI+EeV624Uc0+4mi
dXIu88NJwDdPFiA33fLxYhykqto4lvIMs0TfHsXh9GPhfwIDAQABo0IwQDAPBgNV
HRMBAf8EBTADAQH/MA4GA1UdDwEB/wQEAwIBBjAdBgNVHQ4EFgQUgzbl97I9U1js
mayuTUOKO4HU768wDQYJKoZIhvcNAQELBQADggEBAN0syhcMiPnZ72G/FtrYWmZ0
vk0f7xF7F6SeCXbbiLCUhfZdlu5kiAVlCDlSnHUIyv7YiBKR9UQbJECQ7r9M6NFw
ec6uSyaREACOAmwYW3LMWkdJjbV0dwjxhVYXY9VR6eC5Y1IZtaSlmu7gTml1D/9v
rZZ42qaI/jNPnK4QdA7hlDcC9nNbaYq9zD4BrK97oExFKDMvfGEB0lDHGuouOx9e
l3Z5/dViR6dLCH3ZvTMcT1WpZH4WZiY0ULLqkrf0J6nFKC233lcfJp4b3mB1vK7f
KJEU+WZw9u4HFfy+pTxk4lWU+4UGHGFrSsBJM+WIxFMVRxvSe9VHH4YmXOl1plg=
-----END CERTIFICATE-----
